(dp0
Vvalidation_0
p1
(dp2
Verror
p3
(lp4
F0.1815
aF0.1565
aF0.1295
aF0.12
aF0.111
aF0.1105
aF0.1045
aF0.0995
aF0.095
aF0.0935
aF0.09
aF0.0885
aF0.084
aF0.079
aF0.078
aF0.077
aF0.0745
aF0.072
aF0.072
aF0.0675
aF0.068
aF0.0665
aF0.065
aF0.064
aF0.063
aF0.059
aF0.0585
aF0.058
aF0.0585
aF0.0575
aF0.056
aF0.0545
aF0.0545
aF0.052
aF0.052
aF0.0495
aF0.0425
aF0.041
aF0.04
aF0.0405
aF0.037
aF0.036
aF0.0355
aF0.0355
aF0.0335
aF0.034
aF0.0335
aF0.031
aF0.0315
aF0.031
aF0.03
aF0.029
aF0.0285
aF0.029
aF0.029
aF0.028
aF0.028
aF0.027
aF0.0255
aF0.0265
aF0.0205
aF0.02
aF0.0205
aF0.02
aF0.019
aF0.018
aF0.0175
aF0.017
aF0.0165
aF0.016
aF0.015
aF0.015
aF0.014
aF0.012
aF0.0125
aF0.0125
aF0.012
aF0.0105
aF0.0105
aF0.01
aF0.01
aF0.011
aF0.0095
aF0.008
aF0.0075
aF0.0075
aF0.0075
aF0.008
aF0.008
aF0.008
aF0.0085
aF0.0085
aF0.0085
aF0.008
aF0.008
aF0.008
aF0.0075
aF0.007
aF0.007
aF0.0065
assVvalidation_1
p5
(dp6
Verror
p7
(lp8
F0.205
aF0.1925
aF0.1825
aF0.1675
aF0.145
aF0.13
aF0.13
aF0.125
aF0.1175
aF0.105
aF0.1
aF0.1075
aF0.1025
aF0.0975
aF0.09
aF0.09
aF0.09
aF0.0875
aF0.08
aF0.0825
aF0.08
aF0.0775
aF0.075
aF0.08
aF0.0775
aF0.0775
aF0.075
aF0.0775
aF0.075
aF0.075
aF0.0725
aF0.065
aF0.0625
aF0.065
aF0.065
aF0.06
aF0.06
aF0.0575
aF0.06
aF0.06
aF0.0575
aF0.0575
aF0.06
aF0.0575
aF0.0575
aF0.055
aF0.055
aF0.0575
aF0.0575
aF0.0575
aF0.06
aF0.0575
aF0.0575
aF0.0575
aF0.0575
aF0.0575
aF0.0575
aF0.0575
aF0.0575
aF0.055
aF0.05
aF0.05
aF0.05
aF0.05
aF0.0475
aF0.0475
aF0.045
aF0.0425
aF0.0425
aF0.045
aF0.045
aF0.045
aF0.045
aF0.045
aF0.045
aF0.045
aF0.045
aF0.0425
aF0.04
aF0.04
aF0.04
aF0.04
aF0.04
aF0.0375
aF0.0375
aF0.0375
aF0.0375
aF0.0375
aF0.0375
aF0.0375
aF0.0375
aF0.0375
aF0.0375
aF0.04
aF0.04
aF0.0375
aF0.0375
aF0.0375
aF0.0375
aF0.0375
ass.