(dp0
Vvalidation_0
p1
(dp2
Vlogloss
p3
(lp4
F0.647059
aF0.606759
aF0.572301
aF0.536101
aF0.504933
aF0.480454
aF0.454866
aF0.432197
aF0.412777
aF0.393866
aF0.377481
aF0.360132
aF0.345969
aF0.332523
aF0.320341
aF0.309416
aF0.297771
aF0.285238
aF0.27671
aF0.267385
aF0.258481
aF0.250877
aF0.241989
aF0.235464
aF0.229352
aF0.221802
aF0.214925
aF0.208984
aF0.203348
aF0.198101
aF0.192569
aF0.187117
aF0.182947
aF0.178632
aF0.174506
aF0.168726
aF0.165185
aF0.162364
aF0.158794
aF0.155379
aF0.151248
aF0.146618
aF0.142042
aF0.139198
aF0.136563
aF0.133953
aF0.130982
aF0.127341
aF0.124491
aF0.122144
aF0.119161
aF0.116778
aF0.114303
aF0.111999
aF0.109342
aF0.106057
aF0.104657
aF0.102677
aF0.101027
aF0.099173
aF0.097193
aF0.095795
aF0.094111
aF0.092046
aF0.09055
aF0.089231
aF0.087612
aF0.08582
aF0.084153
aF0.083041
aF0.081968
aF0.080697
aF0.078743
aF0.077312
aF0.075775
aF0.074432
aF0.072643
aF0.070875
aF0.069853
aF0.068779
aF0.067466
aF0.066388
aF0.065223
aF0.063816
aF0.062905
aF0.062246
aF0.061309
aF0.060058
aF0.058925
aF0.057542
aF0.056239
aF0.055146
aF0.054533
aF0.053589
aF0.052695
aF0.051929
aF0.051502
aF0.050784
aF0.049725
aF0.048987
asVerror
p5
(lp6
F0.1655
aF0.1475
aF0.1395
aF0.118
aF0.1025
aF0.1025
aF0.0955
aF0.093
aF0.0865
aF0.082
aF0.079
aF0.082
aF0.0755
aF0.0745
aF0.0705
aF0.0665
aF0.061
aF0.062
aF0.0615
aF0.059
aF0.0585
aF0.056
aF0.053
aF0.0505
aF0.0485
aF0.0455
aF0.044
aF0.043
aF0.042
aF0.042
aF0.04
aF0.037
aF0.035
aF0.0365
aF0.035
aF0.0335
aF0.033
aF0.0325
aF0.0315
aF0.0305
aF0.0255
aF0.0235
aF0.021
aF0.0215
aF0.022
aF0.021
aF0.02
aF0.0195
aF0.0195
aF0.018
aF0.0165
aF0.017
aF0.017
aF0.017
aF0.0145
aF0.013
aF0.0135
aF0.0135
aF0.0135
aF0.0135
aF0.0135
aF0.013
aF0.012
aF0.0125
aF0.011
aF0.011
aF0.0095
aF0.0095
aF0.0095
aF0.0095
aF0.01
aF0.0095
aF0.009
aF0.0085
aF0.007
aF0.0075
aF0.007
aF0.006
aF0.006
aF0.006
aF0.0055
aF0.0055
aF0.0055
aF0.005
aF0.005
aF0.005
aF0.005
aF0.005
aF0.0045
aF0.005
aF0.0035
aF0.0035
aF0.004
aF0.0035
aF0.0035
aF0.003
aF0.003
aF0.003
aF0.003
aF0.003
assVvalidation_1
p7
(dp8
Vlogloss
p9
(lp10
F0.648507
aF0.609335
aF0.577144
aF0.543341
aF0.511237
aF0.486409
aF0.464487
aF0.44407
aF0.42731
aF0.41062
aF0.392771
aF0.378652
aF0.368419
aF0.354905
aF0.344262
aF0.336505
aF0.327402
aF0.318007
aF0.309009
aF0.30209
aF0.294487
aF0.285545
aF0.279085
aF0.275419
aF0.270268
aF0.263307
aF0.258279
aF0.25277
aF0.248839
aF0.24563
aF0.24092
aF0.238125
aF0.234962
aF0.232875
aF0.230527
aF0.226379
aF0.223401
aF0.220502
aF0.218519
aF0.216173
aF0.215184
aF0.211796
aF0.208226
aF0.206125
aF0.204658
aF0.202907
aF0.201144
aF0.200534
aF0.199934
aF0.197883
aF0.195193
aF0.193208
aF0.192788
aF0.192453
aF0.191112
aF0.188836
aF0.187759
aF0.185744
aF0.18402
aF0.182861
aF0.181492
aF0.180311
aF0.179202
aF0.178173
aF0.178587
aF0.177734
aF0.1771
aF0.176276
aF0.174552
aF0.173986
aF0.173119
aF0.172472
aF0.171841
aF0.17159
aF0.170711
aF0.170328
aF0.168844
aF0.167817
aF0.167905
aF0.16777
aF0.167788
aF0.168018
aF0.167188
aF0.166308
aF0.165724
aF0.165199
aF0.165176
aF0.165267
aF0.164914
aF0.164331
aF0.163447
aF0.163701
aF0.162675
aF0.162313
aF0.162226
aF0.161916
aF0.161884
aF0.161516
aF0.160481
aF0.160474
asVerror
p11
(lp12
F0.175
aF0.1525
aF0.15
aF0.1225
aF0.125
aF0.11
aF0.115
aF0.1175
aF0.1125
aF0.1025
aF0.0925
aF0.0875
aF0.0925
aF0.0825
aF0.08
aF0.08
aF0.0825
aF0.085
aF0.085
aF0.0825
aF0.085
aF0.075
aF0.075
aF0.0775
aF0.0725
aF0.075
aF0.0775
aF0.0725
aF0.0725
aF0.0725
aF0.0725
aF0.075
aF0.0775
aF0.0775
aF0.08
aF0.0725
aF0.075
aF0.075
aF0.075
aF0.0775
aF0.075
aF0.07
aF0.0725
aF0.0725
aF0.0675
aF0.07
aF0.0675
aF0.0675
aF0.065
aF0.0625
aF0.06
aF0.065
aF0.065
aF0.0675
aF0.06
aF0.0625
aF0.0575
aF0.0575
aF0.0575
aF0.0575
aF0.0525
aF0.0525
aF0.0525
aF0.0525
aF0.0575
aF0.0575
aF0.055
aF0.06
aF0.06
aF0.0575
aF0.06
aF0.0575
aF0.0575
aF0.0575
aF0.0575
aF0.0575
aF0.055
aF0.055
aF0.055
aF0.0575
aF0.0575
aF0.0575
aF0.0525
aF0.055
aF0.0525
aF0.05
aF0.05
aF0.0525
aF0.0525
aF0.0525
aF0.055
aF0.055
aF0.055
aF0.0525
aF0.055
aF0.055
aF0.055
aF0.055
aF0.055
aF0.055
ass.